target datalayout = "e-m:e-p270:32:32-p271:32:32-p272:64:64-i64:64-i128:128-f80:128-n8:16:32:64-S128"
target triple = "x86_64-pc-linux-gnu"

%"class.toku::concurrent_tree" = type { %"class.toku::treenode" }
%"class.toku::treenode" = type <{ %struct.toku_mutex_t, %"class.toku::keyrange", i64, i8, [7 x i8], ptr, %"struct.toku::treenode::child_ptr", %"struct.toku::treenode::child_ptr", ptr, i8, i8, [6 x i8] }>
%struct.toku_mutex_t = type { %union.pthread_mutex_t, ptr }
%union.pthread_mutex_t = type { %struct.__pthread_mutex_s }
%struct.__pthread_mutex_s = type { i32, i32, i32, i32, i32, i16, i16, %struct.__pthread_internal_list }
%struct.__pthread_internal_list = type { ptr, ptr }
%"class.toku::keyrange" = type <{ %struct.__toku_dbt, %struct.__toku_dbt, ptr, ptr, i8, [7 x i8] }>
%struct.__toku_dbt = type { ptr, i64, i64, i32 }
%"struct.toku::treenode::child_ptr" = type { ptr, i32 }
%"class.toku::concurrent_tree::locked_keyrange" = type { ptr, %"class.toku::keyrange", ptr }

; Function Attrs: mustprogress uwtable
define void @_ZN4toku15concurrent_tree15locked_keyrange7prepareEPS0_(ptr noundef nonnull align 8 dereferenceable(104) %0, ptr noundef %1) #0 align 2 {
  %3 = alloca ptr, align 8
  %4 = alloca ptr, align 8
  %5 = alloca ptr, align 8
  %6 = alloca %"class.toku::keyrange", align 8
  store ptr %0, ptr %3, align 8, !tbaa !11
  store ptr %1, ptr %4, align 8, !tbaa !4
  %7 = load ptr, ptr %3, align 8
  call void @llvm.lifetime.start.p0(i64 8, ptr %5) #5
  %8 = load ptr, ptr %4, align 8, !tbaa !4
  %9 = getelementptr inbounds nuw %"class.toku::concurrent_tree", ptr %8, i32 0, i32 0
  store ptr %9, ptr %5, align 8, !tbaa !13
  %10 = load ptr, ptr %4, align 8, !tbaa !4
  %11 = getelementptr inbounds nuw %"class.toku::concurrent_tree::locked_keyrange", ptr %7, i32 0, i32 0
  store ptr %10, ptr %11, align 8, !tbaa !15
  %12 = load ptr, ptr %5, align 8, !tbaa !13
  %13 = getelementptr inbounds nuw %"class.toku::concurrent_tree::locked_keyrange", ptr %7, i32 0, i32 2
  store ptr %12, ptr %13, align 8, !tbaa !23
  call void @llvm.lifetime.start.p0(i64 88, ptr %6) #5
  call void @_ZN4toku8keyrange18get_infinite_rangeEv(ptr dead_on_unwind writable sret(%"class.toku::keyrange") align 8 %6)
  %14 = getelementptr inbounds nuw %"class.toku::concurrent_tree::locked_keyrange", ptr %7, i32 0, i32 1
  call void @llvm.memcpy.p0.p0.i64(ptr align 8 %14, ptr align 8 %6, i64 81, i1 false), !tbaa.struct !24
  call void @llvm.lifetime.end.p0(i64 88, ptr %6) #5
  %15 = load ptr, ptr %5, align 8, !tbaa !13
  call void @_ZN4toku8treenode10mutex_lockEv(ptr noundef nonnull align 8 dereferenceable(202) %15)
  call void @llvm.lifetime.end.p0(i64 8, ptr %5) #5
  ret void
}