; Function Attrs: mustprogress uwtable
define void @_ZN4toku15concurrent_tree15locked_keyrange7prepareEPS0_(ptr noundef nonnull writeonly align 8 captures(none) dereferenceable(104) initializes((0, 89), (96, 104)) %0, ptr noundef %1) local_unnamed_addr #0 align 2 {
  %3 = alloca %"class.toku::keyrange", align 8
  store ptr %1, ptr %0, align 8, !tbaa !4
  %4 = getelementptr inbounds nuw i8, ptr %0, i64 96
  store ptr %1, ptr %4, align 8, !tbaa !17
  call void @llvm.lifetime.start.p0(i64 88, ptr nonnull %3) #5
  call void @_ZN4toku8keyrange18get_infinite_rangeEv(ptr dead_on_unwind nonnull writable sret(%"class.toku::keyrange") align 8 %3)
  %5 = getelementptr inbounds nuw i8, ptr %0, i64 8
  call void @llvm.memcpy.p0.p0.i64(ptr noundef nonnull align 8 dereferenceable(81) %5, ptr noundef nonnull align 8 dereferenceable(81) %3, i64 81, i1 false), !tbaa.struct !18
  call void @llvm.lifetime.end.p0(i64 88, ptr nonnull %3) #5
  call void @_ZN4toku8treenode10mutex_lockEv(ptr noundef nonnull align 8 dereferenceable(202) %1)
  ret void
}